; Function Attrs: nounwind uwtable
define void @Cnf_DataCollectFlipLits(ptr noundef readonly captures(none) %0, i32 noundef %1, ptr noundef captures(none) initializes((4, 8)) %2) local_unnamed_addr #0 {
  %4 = getelementptr inbounds nuw i8, ptr %2, i64 4
  store i32 0, ptr %4, align 4, !tbaa !20
  %5 = getelementptr inbounds nuw i8, ptr %0, i64 12
  %6 = load i32, ptr %5, align 4, !tbaa !50
  %7 = icmp sgt i32 %6, 0
  br i1 %7, label %.lr.ph, label %._crit_edge

.lr.ph:                                           ; preds = %3
  %8 = getelementptr inbounds nuw i8, ptr %0, i64 24
  %.phi.trans.insert.i = getelementptr inbounds nuw i8, ptr %2, i64 8
  br label %9

9:                                                ; preds = %.lr.ph, %47
  %10 = phi i32 [ %6, %.lr.ph ], [ %48, %47 ]
  %indvars.iv = phi i64 [ 0, %.lr.ph ], [ %indvars.iv.next, %47 ]
  %11 = load ptr, ptr %8, align 8, !tbaa !51
  %12 = load ptr, ptr %11, align 8, !tbaa !16
  %13 = getelementptr inbounds nuw i32, ptr %12, i64 %indvars.iv
  %14 = load i32, ptr %13, align 4, !tbaa !28
  %15 = ashr i32 %14, 1
  %16 = icmp eq i32 %15, %1
  br i1 %16, label %17, label %47

17:                                               ; preds = %9
  %18 = load i32, ptr %4, align 4, !tbaa !20
  %19 = load i32, ptr %2, align 8, !tbaa !22
  %20 = icmp eq i32 %18, %19
  br i1 %20, label %21, label %.Vec_IntGrow.exit10_crit_edge.i

.Vec_IntGrow.exit10_crit_edge.i:                  ; preds = %17
  %.pre.i = load ptr, ptr %.phi.trans.insert.i, align 8, !tbaa !23
  br label %Vec_IntPush.exit

21:                                               ; preds = %17
  %22 = icmp slt i32 %18, 16
  br i1 %22, label %23, label %30

23:                                               ; preds = %21
  %24 = load ptr, ptr %.phi.trans.insert.i, align 8, !tbaa !23
  %.not9.i.i = icmp eq ptr %24, null
  br i1 %.not9.i.i, label %27, label %25

25:                                               ; preds = %23
  %26 = tail call dereferenceable_or_null(64) ptr @realloc(ptr noundef nonnull %24, i64 noundef 64) #18
  br label %Vec_IntGrow.exit.i

27:                                               ; preds = %23
  %28 = tail call noalias dereferenceable_or_null(64) ptr @malloc(i64 noundef 64) #17
  br label %Vec_IntGrow.exit.i

Vec_IntGrow.exit.i:                               ; preds = %27, %25
  %29 = phi ptr [ %26, %25 ], [ %28, %27 ]
  store ptr %29, ptr %.phi.trans.insert.i, align 8, !tbaa !23
  store i32 16, ptr %2, align 8, !tbaa !22
  br label %Vec_IntPush.exit

30:                                               ; preds = %21
  %31 = shl nuw nsw i32 %18, 1
  %32 = load ptr, ptr %.phi.trans.insert.i, align 8, !tbaa !23
  %.not9.i9.i = icmp eq ptr %32, null
  %33 = zext nneg i32 %31 to i64
  %34 = shl nuw nsw i64 %33, 2
  br i1 %.not9.i9.i, label %37, label %35

35:                                               ; preds = %30
  %36 = tail call ptr @realloc(ptr noundef nonnull %32, i64 noundef %34) #18
  br label %39

37:                                               ; preds = %30
  %38 = tail call noalias ptr @malloc(i64 noundef %34) #17
  br label %39

39:                                               ; preds = %37, %35
  %40 = phi ptr [ %36, %35 ], [ %38, %37 ]
  store ptr %40, ptr %.phi.trans.insert.i, align 8, !tbaa !23
  store i32 %31, ptr %2, align 8, !tbaa !22
  br label %Vec_IntPush.exit

Vec_IntPush.exit:                                 ; preds = %.Vec_IntGrow.exit10_crit_edge.i, %Vec_IntGrow.exit.i, %39
  %41 = phi ptr [ %.pre.i, %.Vec_IntGrow.exit10_crit_edge.i ], [ %40, %39 ], [ %29, %Vec_IntGrow.exit.i ]
  %42 = load i32, ptr %4, align 4, !tbaa !20
  %43 = add nsw i32 %42, 1
  store i32 %43, ptr %4, align 4, !tbaa !20
  %44 = sext i32 %42 to i64
  %45 = getelementptr inbounds i32, ptr %41, i64 %44
  %46 = trunc nuw nsw i64 %indvars.iv to i32
  store i32 %46, ptr %45, align 4, !tbaa !28
  %.pre = load i32, ptr %5, align 4, !tbaa !50
  br label %47

47:                                               ; preds = %9, %Vec_IntPush.exit
  %48 = phi i32 [ %10, %9 ], [ %.pre, %Vec_IntPush.exit ]
  %indvars.iv.next = add nuw nsw i64 %indvars.iv, 1
  %49 = sext i32 %48 to i64
  %50 = icmp slt i64 %indvars.iv.next, %49
  br i1 %50, label %9, label %._crit_edge, !llvm.loop !63

._crit_edge:                                      ; preds = %47, %3
  ret void
}